target datalayout = "e-m:e-p270:32:32-p271:32:32-p272:64:64-i64:64-i128:128-f80:128-n8:16:32:64-S128"
target triple = "x86_64-pc-linux-gnu"

@__const._blend_Lab_scale.scale = private unnamed_addr constant [4 x float] [float 0x3F847AE140000000, float 7.812500e-03, float 7.812500e-03, float 1.000000e+00], align 16
@__const._blend_Lab_rescale.scale = private unnamed_addr constant [4 x float] [float 1.000000e+02, float 1.280000e+02, float 1.280000e+02, float 1.000000e+00], align 16

; Function Attrs: inlinehint nounwind uwtable
define internal void @_blend_Lab_rescale(ptr noundef %0, ptr noundef %1) #2 {
  %3 = alloca ptr, align 8
  %4 = alloca ptr, align 8
  %5 = alloca [4 x float], align 16
  %6 = alloca i64, align 8
  store ptr %0, ptr %3, align 8, !tbaa !11
  store ptr %1, ptr %4, align 8, !tbaa !11
  call void @llvm.lifetime.start.p0(i64 16, ptr %5) #8
  call void @llvm.memcpy.p0.p0.i64(ptr align 16 %5, ptr align 16 @__const._blend_Lab_rescale.scale, i64 16, i1 false)
  call void @llvm.lifetime.start.p0(i64 8, ptr %6) #8
  store i64 0, ptr %6, align 8, !tbaa !43
  br label %7

7:                                                ; preds = %23, %2
  %8 = load i64, ptr %6, align 8, !tbaa !43
  %9 = icmp ult i64 %8, 4
  br i1 %9, label %11, label %10

10:                                               ; preds = %7
  call void @llvm.lifetime.end.p0(i64 8, ptr %6) #8
  br label %26

11:                                               ; preds = %7
  %12 = load ptr, ptr %3, align 8, !tbaa !11
  %13 = load i64, ptr %6, align 8, !tbaa !43
  %14 = getelementptr inbounds nuw float, ptr %12, i64 %13
  %15 = load float, ptr %14, align 4, !tbaa !45
  %16 = load i64, ptr %6, align 8, !tbaa !43
  %17 = getelementptr inbounds nuw [4 x float], ptr %5, i64 0, i64 %16
  %18 = load float, ptr %17, align 4, !tbaa !45
  %19 = fmul reassoc nsz arcp contract afn float %15, %18
  %20 = load ptr, ptr %4, align 8, !tbaa !11
  %21 = load i64, ptr %6, align 8, !tbaa !43
  %22 = getelementptr inbounds nuw float, ptr %20, i64 %21
  store float %19, ptr %22, align 4, !tbaa !45
  br label %23

23:                                               ; preds = %11
  %24 = load i64, ptr %6, align 8, !tbaa !43
  %25 = add i64 %24, 1
  store i64 %25, ptr %6, align 8, !tbaa !43
  br label %7

26:                                               ; preds = %10
  call void @llvm.lifetime.end.p0(i64 16, ptr %5) #8
  ret void
}

; Function Attrs: inlinehint nounwind uwtable
define internal float @_CLAMP(float noundef %0, float noundef %1, float noundef %2) #2 {
  %4 = alloca float, align 4
  %5 = alloca float, align 4
  %6 = alloca float, align 4
  store float %0, ptr %4, align 4, !tbaa !45
  store float %1, ptr %5, align 4, !tbaa !45
  store float %2, ptr %6, align 4, !tbaa !45
  %7 = load float, ptr %4, align 4, !tbaa !45
  %8 = load float, ptr %5, align 4, !tbaa !45
  %9 = call reassoc nsz arcp contract afn float @llvm.maxnum.f32(float %7, float %8)
  %10 = load float, ptr %6, align 4, !tbaa !45
  %11 = call reassoc nsz arcp contract afn float @llvm.minnum.f32(float %9, float %10)
  ret float %11
}

; Function Attrs: inlinehint nounwind uwtable
define internal void @_blend_Lab_scale(ptr noundef %0, ptr noundef %1) #2 {
  %3 = alloca ptr, align 8
  %4 = alloca ptr, align 8
  %5 = alloca [4 x float], align 16
  %6 = alloca i64, align 8
  store ptr %0, ptr %3, align 8, !tbaa !11
  store ptr %1, ptr %4, align 8, !tbaa !11
  call void @llvm.lifetime.start.p0(i64 16, ptr %5) #8
  call void @llvm.memcpy.p0.p0.i64(ptr align 16 %5, ptr align 16 @__const._blend_Lab_scale.scale, i64 16, i1 false)
  call void @llvm.lifetime.start.p0(i64 8, ptr %6) #8
  store i64 0, ptr %6, align 8, !tbaa !43
  br label %7

7:                                                ; preds = %23, %2
  %8 = load i64, ptr %6, align 8, !tbaa !43
  %9 = icmp ult i64 %8, 4
  br i1 %9, label %11, label %10

10:                                               ; preds = %7
  call void @llvm.lifetime.end.p0(i64 8, ptr %6) #8
  br label %26

11:                                               ; preds = %7
  %12 = load ptr, ptr %3, align 8, !tbaa !11
  %13 = load i64, ptr %6, align 8, !tbaa !43
  %14 = getelementptr inbounds nuw float, ptr %12, i64 %13
  %15 = load float, ptr %14, align 4, !tbaa !45
  %16 = load i64, ptr %6, align 8, !tbaa !43
  %17 = getelementptr inbounds nuw [4 x float], ptr %5, i64 0, i64 %16
  %18 = load float, ptr %17, align 4, !tbaa !45
  %19 = fmul reassoc nsz arcp contract afn float %15, %18
  %20 = load ptr, ptr %4, align 8, !tbaa !11
  %21 = load i64, ptr %6, align 8, !tbaa !43
  %22 = getelementptr inbounds nuw float, ptr %20, i64 %21
  store float %19, ptr %22, align 4, !tbaa !45
  br label %23

23:                                               ; preds = %11
  %24 = load i64, ptr %6, align 8, !tbaa !43
  %25 = add i64 %24, 1
  store i64 %25, ptr %6, align 8, !tbaa !43
  br label %7

26:                                               ; preds = %10
  call void @llvm.lifetime.end.p0(i64 16, ptr %5) #8
  ret void
}

; Function Attrs: nounwind uwtable
define internal void @_blend_vividlight(ptr noundef %0, ptr noundef %1, ptr noundef %2, ptr noalias noundef %3, i64 noundef %4, ptr noundef %5, ptr noundef %6) #0 {
  %8 = alloca ptr, align 8
  %9 = alloca ptr, align 8
  %10 = alloca ptr, align 8
  %11 = alloca ptr, align 8
  %12 = alloca i64, align 8
  %13 = alloca ptr, align 8
  %14 = alloca ptr, align 8
  %15 = alloca i64, align 8
  %16 = alloca i64, align 8
  %17 = alloca float, align 4
  %18 = alloca float, align 4
  %19 = alloca [4 x float], align 16
  %20 = alloca [4 x float], align 16
  %21 = alloca float, align 4
  %22 = alloca float, align 4
  %23 = alloca float, align 4
  %24 = alloca float, align 4
  %25 = alloca float, align 4
  %26 = alloca float, align 4
  %27 = alloca float, align 4
  store ptr %0, ptr %8, align 8, !tbaa !11
  store ptr %1, ptr %9, align 8, !tbaa !11
  store ptr %2, ptr %10, align 8, !tbaa !11
  store ptr %3, ptr %11, align 8, !tbaa !11
  store i64 %4, ptr %12, align 8, !tbaa !43
  store ptr %5, ptr %13, align 8, !tbaa !11
  store ptr %6, ptr %14, align 8, !tbaa !11
  call void @llvm.lifetime.start.p0(i64 8, ptr %15) #8
  store i64 0, ptr %15, align 8, !tbaa !43
  call void @llvm.lifetime.start.p0(i64 8, ptr %16) #8
  store i64 0, ptr %16, align 8, !tbaa !43
  br label %28

28:                                               ; preds = %195, %7
  %29 = load i64, ptr %15, align 8, !tbaa !43
  %30 = load i64, ptr %12, align 8, !tbaa !43
  %31 = icmp ult i64 %29, %30
  br i1 %31, label %33, label %32

32:                                               ; preds = %28
  call void @llvm.lifetime.end.p0(i64 8, ptr %16) #8
  call void @llvm.lifetime.end.p0(i64 8, ptr %15) #8
  br label %200

33:                                               ; preds = %28
  call void @llvm.lifetime.start.p0(i64 4, ptr %17) #8
  %34 = load ptr, ptr %11, align 8, !tbaa !11
  %35 = load i64, ptr %15, align 8, !tbaa !43
  %36 = getelementptr inbounds nuw float, ptr %34, i64 %35
  %37 = load float, ptr %36, align 4, !tbaa !45
  store float %37, ptr %17, align 4, !tbaa !45
  call void @llvm.lifetime.start.p0(i64 4, ptr %18) #8
  %38 = load float, ptr %17, align 4, !tbaa !45
  %39 = load float, ptr %17, align 4, !tbaa !45
  %40 = fmul reassoc nsz arcp contract afn float %38, %39
  store float %40, ptr %18, align 4, !tbaa !45
  call void @llvm.lifetime.start.p0(i64 16, ptr %19) #8
  call void @llvm.lifetime.start.p0(i64 16, ptr %20) #8
  %41 = load ptr, ptr %8, align 8, !tbaa !11
  %42 = load i64, ptr %16, align 8, !tbaa !43
  %43 = getelementptr inbounds nuw float, ptr %41, i64 %42
  %44 = getelementptr inbounds [4 x float], ptr %19, i64 0, i64 0
  call void @_blend_Lab_scale(ptr noundef %43, ptr noundef %44)
  %45 = load ptr, ptr %9, align 8, !tbaa !11
  %46 = load i64, ptr %16, align 8, !tbaa !43
  %47 = getelementptr inbounds nuw float, ptr %45, i64 %46
  %48 = getelementptr inbounds [4 x float], ptr %20, i64 0, i64 0
  call void @_blend_Lab_scale(ptr noundef %47, ptr noundef %48)
  call void @llvm.lifetime.start.p0(i64 4, ptr %21) #8
  store float 0.000000e+00, ptr %21, align 4, !tbaa !45
  call void @llvm.lifetime.start.p0(i64 4, ptr %22) #8
  %49 = load ptr, ptr %14, align 8, !tbaa !11
  %50 = getelementptr inbounds float, ptr %49, i64 0
  %51 = load float, ptr %50, align 4, !tbaa !45
  %52 = load ptr, ptr %13, align 8, !tbaa !11
  %53 = getelementptr inbounds float, ptr %52, i64 0
  %54 = load float, ptr %53, align 4, !tbaa !45
  %55 = call reassoc nsz arcp contract afn float @llvm.fabs.f32(float %54)
  %56 = fadd reassoc nsz arcp contract afn float %51, %55
  store float %56, ptr %22, align 4, !tbaa !45
  call void @llvm.lifetime.start.p0(i64 4, ptr %23) #8
  %57 = getelementptr inbounds [4 x float], ptr %19, i64 0, i64 0
  %58 = load float, ptr %57, align 16, !tbaa !45
  %59 = load ptr, ptr %13, align 8, !tbaa !11
  %60 = getelementptr inbounds float, ptr %59, i64 0
  %61 = load float, ptr %60, align 4, !tbaa !45
  %62 = call reassoc nsz arcp contract afn float @llvm.fabs.f32(float %61)
  %63 = fadd reassoc nsz arcp contract afn float %58, %62
  %64 = load float, ptr %22, align 4, !tbaa !45
  %65 = call reassoc nsz arcp contract afn float @_CLAMP(float noundef %63, float noundef 0.000000e+00, float noundef %64)
  store float %65, ptr %23, align 4, !tbaa !45
  call void @llvm.lifetime.start.p0(i64 4, ptr %24) #8
  %66 = getelementptr inbounds [4 x float], ptr %20, i64 0, i64 0
  %67 = load float, ptr %66, align 16, !tbaa !45
  %68 = load ptr, ptr %13, align 8, !tbaa !11
  %69 = getelementptr inbounds float, ptr %68, i64 0
  %70 = load float, ptr %69, align 4, !tbaa !45
  %71 = call reassoc nsz arcp contract afn float @llvm.fabs.f32(float %70)
  %72 = fadd reassoc nsz arcp contract afn float %67, %71
  %73 = load float, ptr %22, align 4, !tbaa !45
  %74 = call reassoc nsz arcp contract afn float @_CLAMP(float noundef %72, float noundef 0.000000e+00, float noundef %73)
  store float %74, ptr %24, align 4, !tbaa !45
  call void @llvm.lifetime.start.p0(i64 4, ptr %25) #8
  %75 = load float, ptr %22, align 4, !tbaa !45
  %76 = fdiv reassoc nsz arcp contract afn float %75, 2.000000e+00
  store float %76, ptr %25, align 4, !tbaa !45
  call void @llvm.lifetime.start.p0(i64 4, ptr %26) #8
  %77 = load float, ptr %22, align 4, !tbaa !45
  %78 = fmul reassoc nsz arcp contract afn float %77, 2.000000e+00
  store float %78, ptr %26, align 4, !tbaa !45
  %79 = load float, ptr %23, align 4, !tbaa !45
  %80 = load float, ptr %18, align 4, !tbaa !45
  %81 = fsub reassoc nsz arcp contract afn float 1.000000e+00, %80
  %82 = fmul reassoc nsz arcp contract afn float %79, %81
  %83 = load float, ptr %24, align 4, !tbaa !45
  %84 = load float, ptr %25, align 4, !tbaa !45
  %85 = fcmp reassoc nsz arcp contract afn ogt float %83, %84
  br i1 %85, label %86, label %102

86:                                               ; preds = %33
  %87 = load float, ptr %24, align 4, !tbaa !45
  %88 = load float, ptr %22, align 4, !tbaa !45
  %89 = fcmp reassoc nsz arcp contract afn oge float %87, %88
  br i1 %89, label %90, label %92

90:                                               ; preds = %86
  %91 = load float, ptr %22, align 4, !tbaa !45
  br label %100

92:                                               ; preds = %86
  %93 = load float, ptr %23, align 4, !tbaa !45
  %94 = load float, ptr %26, align 4, !tbaa !45
  %95 = load float, ptr %22, align 4, !tbaa !45
  %96 = load float, ptr %24, align 4, !tbaa !45
  %97 = fsub reassoc nsz arcp contract afn float %95, %96
  %98 = fmul reassoc nsz arcp contract afn float %94, %97
  %99 = fdiv reassoc nsz arcp contract afn float %93, %98
  br label %100

100:                                              ; preds = %92, %90
  %101 = phi reassoc nsz arcp contract afn float [ %91, %90 ], [ %99, %92 ]
  br label %118

102:                                              ; preds = %33
  %103 = load float, ptr %24, align 4, !tbaa !45
  %104 = fcmp reassoc nsz arcp contract afn ole float %103, 0.000000e+00
  br i1 %104, label %105, label %106

105:                                              ; preds = %102
  br label %116

106:                                              ; preds = %102
  %107 = load float, ptr %22, align 4, !tbaa !45
  %108 = load float, ptr %22, align 4, !tbaa !45
  %109 = load float, ptr %23, align 4, !tbaa !45
  %110 = fsub reassoc nsz arcp contract afn float %108, %109
  %111 = load float, ptr %26, align 4, !tbaa !45
  %112 = load float, ptr %24, align 4, !tbaa !45
  %113 = fmul reassoc nsz arcp contract afn float %111, %112
  %114 = fdiv reassoc nsz arcp contract afn float %110, %113
  %115 = fsub reassoc nsz arcp contract afn float %107, %114
  br label %116

116:                                              ; preds = %106, %105
  %117 = phi reassoc nsz arcp contract afn float [ 0.000000e+00, %105 ], [ %115, %106 ]
  br label %118

118:                                              ; preds = %116, %100
  %119 = phi reassoc nsz arcp contract afn float [ %101, %100 ], [ %117, %116 ]
  %120 = load float, ptr %18, align 4, !tbaa !45
  %121 = fmul reassoc nsz arcp contract afn float %119, %120
  %122 = fadd reassoc nsz arcp contract afn float %82, %121
  %123 = load float, ptr %22, align 4, !tbaa !45
  %124 = call reassoc nsz arcp contract afn float @_CLAMP(float noundef %122, float noundef 0.000000e+00, float noundef %123)
  %125 = load ptr, ptr %13, align 8, !tbaa !11
  %126 = getelementptr inbounds float, ptr %125, i64 0
  %127 = load float, ptr %126, align 4, !tbaa !45
  %128 = call reassoc nsz arcp contract afn float @llvm.fabs.f32(float %127)
  %129 = fsub reassoc nsz arcp contract afn float %124, %128
  %130 = getelementptr inbounds [4 x float], ptr %20, i64 0, i64 0
  store float %129, ptr %130, align 16, !tbaa !45
  call void @llvm.lifetime.start.p0(i64 4, ptr %27) #8
  %131 = getelementptr inbounds [4 x float], ptr %19, i64 0, i64 0
  %132 = load float, ptr %131, align 16, !tbaa !45
  %133 = call reassoc nsz arcp contract afn float @llvm.maxnum.f32(float %132, float 0x3F847AE140000000)
  store float %133, ptr %27, align 4, !tbaa !45
  %134 = getelementptr inbounds [4 x float], ptr %19, i64 0, i64 1
  %135 = load float, ptr %134, align 4, !tbaa !45
  %136 = load float, ptr %18, align 4, !tbaa !45
  %137 = fsub reassoc nsz arcp contract afn float 1.000000e+00, %136
  %138 = fmul reassoc nsz arcp contract afn float %135, %137
  %139 = getelementptr inbounds [4 x float], ptr %19, i64 0, i64 1
  %140 = load float, ptr %139, align 4, !tbaa !45
  %141 = getelementptr inbounds [4 x float], ptr %20, i64 0, i64 1
  %142 = load float, ptr %141, align 4, !tbaa !45
  %143 = fadd reassoc nsz arcp contract afn float %140, %142
  %144 = getelementptr inbounds [4 x float], ptr %20, i64 0, i64 0
  %145 = load float, ptr %144, align 16, !tbaa !45
  %146 = fmul reassoc nsz arcp contract afn float %143, %145
  %147 = load float, ptr %27, align 4, !tbaa !45
  %148 = fdiv reassoc nsz arcp contract afn float %146, %147
  %149 = load float, ptr %18, align 4, !tbaa !45
  %150 = fmul reassoc nsz arcp contract afn float %148, %149
  %151 = fadd reassoc nsz arcp contract afn float %138, %150
  %152 = load ptr, ptr %13, align 8, !tbaa !11
  %153 = getelementptr inbounds float, ptr %152, i64 1
  %154 = load float, ptr %153, align 4, !tbaa !45
  %155 = load ptr, ptr %14, align 8, !tbaa !11
  %156 = getelementptr inbounds float, ptr %155, i64 1
  %157 = load float, ptr %156, align 4, !tbaa !45
  %158 = call reassoc nsz arcp contract afn float @_CLAMP(float noundef %151, float noundef %154, float noundef %157)
  %159 = getelementptr inbounds [4 x float], ptr %20, i64 0, i64 1
  store float %158, ptr %159, align 4, !tbaa !45
  %160 = getelementptr inbounds [4 x float], ptr %19, i64 0, i64 2
  %161 = load float, ptr %160, align 8, !tbaa !45
  %162 = load float, ptr %18, align 4, !tbaa !45
  %163 = fsub reassoc nsz arcp contract afn float 1.000000e+00, %162
  %164 = fmul reassoc nsz arcp contract afn float %161, %163
  %165 = getelementptr inbounds [4 x float], ptr %19, i64 0, i64 2
  %166 = load float, ptr %165, align 8, !tbaa !45
  %167 = getelementptr inbounds [4 x float], ptr %20, i64 0, i64 2
  %168 = load float, ptr %167, align 8, !tbaa !45
  %169 = fadd reassoc nsz arcp contract afn float %166, %168
  %170 = getelementptr inbounds [4 x float], ptr %20, i64 0, i64 0
  %171 = load float, ptr %170, align 16, !tbaa !45
  %172 = fmul reassoc nsz arcp contract afn float %169, %171
  %173 = load float, ptr %27, align 4, !tbaa !45
  %174 = fdiv reassoc nsz arcp contract afn float %172, %173
  %175 = load float, ptr %18, align 4, !tbaa !45
  %176 = fmul reassoc nsz arcp contract afn float %174, %175
  %177 = fadd reassoc nsz arcp contract afn float %164, %176
  %178 = load ptr, ptr %13, align 8, !tbaa !11
  %179 = getelementptr inbounds float, ptr %178, i64 2
  %180 = load float, ptr %179, align 4, !tbaa !45
  %181 = load ptr, ptr %14, align 8, !tbaa !11
  %182 = getelementptr inbounds float, ptr %181, i64 2
  %183 = load float, ptr %182, align 4, !tbaa !45
  %184 = call reassoc nsz arcp contract afn float @_CLAMP(float noundef %177, float noundef %180, float noundef %183)
  %185 = getelementptr inbounds [4 x float], ptr %20, i64 0, i64 2
  store float %184, ptr %185, align 8, !tbaa !45
  %186 = getelementptr inbounds [4 x float], ptr %20, i64 0, i64 0
  %187 = load ptr, ptr %10, align 8, !tbaa !11
  %188 = load i64, ptr %16, align 8, !tbaa !43
  %189 = getelementptr inbounds nuw float, ptr %187, i64 %188
  call void @_blend_Lab_rescale(ptr noundef %186, ptr noundef %189)
  %190 = load float, ptr %17, align 4, !tbaa !45
  %191 = load ptr, ptr %10, align 8, !tbaa !11
  %192 = load i64, ptr %16, align 8, !tbaa !43
  %193 = add i64 %192, 3
  %194 = getelementptr inbounds nuw float, ptr %191, i64 %193
  store float %190, ptr %194, align 4, !tbaa !45
  call void @llvm.lifetime.end.p0(i64 4, ptr %27) #8
  call void @llvm.lifetime.end.p0(i64 4, ptr %26) #8
  call void @llvm.lifetime.end.p0(i64 4, ptr %25) #8
  call void @llvm.lifetime.end.p0(i64 4, ptr %24) #8
  call void @llvm.lifetime.end.p0(i64 4, ptr %23) #8
  call void @llvm.lifetime.end.p0(i64 4, ptr %22) #8
  call void @llvm.lifetime.end.p0(i64 4, ptr %21) #8
  call void @llvm.lifetime.end.p0(i64 16, ptr %20) #8
  call void @llvm.lifetime.end.p0(i64 16, ptr %19) #8
  call void @llvm.lifetime.end.p0(i64 4, ptr %18) #8
  call void @llvm.lifetime.end.p0(i64 4, ptr %17) #8
  br label %195

195:                                              ; preds = %118
  %196 = load i64, ptr %15, align 8, !tbaa !43
  %197 = add i64 %196, 1
  store i64 %197, ptr %15, align 8, !tbaa !43
  %198 = load i64, ptr %16, align 8, !tbaa !43
  %199 = add i64 %198, 4
  store i64 %199, ptr %16, align 8, !tbaa !43
  br label %28

200:                                              ; preds = %32
  ret void
}