; Function Attrs: nofree norecurse nosync nounwind memory(argmem: readwrite) uwtable
define internal void @_blend_vividlight(ptr noundef readonly captures(none) %0, ptr noundef readonly captures(none) %1, ptr noundef writeonly captures(none) %2, ptr noalias noundef readonly captures(none) %3, i64 noundef %4, ptr noundef readonly captures(none) %5, ptr noundef readonly captures(none) %6) unnamed_addr #11 {
  %8 = alloca [4 x float], align 16
  %9 = alloca [4 x float], align 16
  %.not = icmp eq i64 %4, 0
  br i1 %.not, label %._crit_edge, label %.lr.ph

.lr.ph:                                           ; preds = %7
  %10 = getelementptr inbounds nuw i8, ptr %8, i64 4
  %11 = getelementptr inbounds nuw i8, ptr %9, i64 4
  %12 = getelementptr inbounds nuw i8, ptr %5, i64 4
  %13 = getelementptr inbounds nuw i8, ptr %6, i64 4
  %14 = getelementptr inbounds nuw i8, ptr %8, i64 8
  %15 = getelementptr inbounds nuw i8, ptr %9, i64 8
  %16 = getelementptr inbounds nuw i8, ptr %5, i64 8
  %17 = getelementptr inbounds nuw i8, ptr %6, i64 8
  br label %18

._crit_edge:                                      ; preds = %_blend_Lab_rescale.exit, %7
  ret void

18:                                               ; preds = %.lr.ph, %_blend_Lab_rescale.exit
  %.063 = phi i64 [ 0, %.lr.ph ], [ %112, %_blend_Lab_rescale.exit ]
  %.05462 = phi i64 [ 0, %.lr.ph ], [ %113, %_blend_Lab_rescale.exit ]
  %19 = getelementptr inbounds nuw float, ptr %3, i64 %.063
  %20 = load float, ptr %19, align 4, !tbaa !36
  call void @llvm.lifetime.start.p0(i64 16, ptr nonnull %8) #8
  call void @llvm.lifetime.start.p0(i64 16, ptr nonnull %9) #8
  %21 = getelementptr inbounds nuw float, ptr %0, i64 %.05462
  br label %22

22:                                               ; preds = %22, %18
  %.06.i = phi i64 [ 0, %18 ], [ %29, %22 ]
  %23 = getelementptr inbounds nuw float, ptr %21, i64 %.06.i
  %24 = load float, ptr %23, align 4, !tbaa !36
  %25 = getelementptr inbounds nuw [4 x float], ptr @__const._blend_Lab_scale.scale, i64 0, i64 %.06.i
  %26 = load float, ptr %25, align 4, !tbaa !36
  %27 = fmul reassoc nsz arcp contract afn float %26, %24
  %28 = getelementptr inbounds nuw float, ptr %8, i64 %.06.i
  store float %27, ptr %28, align 4, !tbaa !36
  %29 = add nuw nsw i64 %.06.i, 1
  %exitcond.not.i = icmp eq i64 %29, 4
  br i1 %exitcond.not.i, label %_blend_Lab_scale.exit, label %22

_blend_Lab_scale.exit:                            ; preds = %22
  %30 = getelementptr inbounds nuw float, ptr %1, i64 %.05462
  br label %31

31:                                               ; preds = %31, %_blend_Lab_scale.exit
  %.06.i57 = phi i64 [ 0, %_blend_Lab_scale.exit ], [ %38, %31 ]
  %32 = getelementptr inbounds nuw float, ptr %30, i64 %.06.i57
  %33 = load float, ptr %32, align 4, !tbaa !36
  %34 = getelementptr inbounds nuw [4 x float], ptr @__const._blend_Lab_scale.scale, i64 0, i64 %.06.i57
  %35 = load float, ptr %34, align 4, !tbaa !36
  %36 = fmul reassoc nsz arcp contract afn float %35, %33
  %37 = getelementptr inbounds nuw float, ptr %9, i64 %.06.i57
  store float %36, ptr %37, align 4, !tbaa !36
  %38 = add nuw nsw i64 %.06.i57, 1
  %exitcond.not.i58 = icmp eq i64 %38, 4
  br i1 %exitcond.not.i58, label %_blend_Lab_scale.exit59, label %31

_blend_Lab_scale.exit59:                          ; preds = %31
  %39 = fmul reassoc nsz arcp contract afn float %20, %20
  %40 = load float, ptr %6, align 4, !tbaa !36
  %41 = load float, ptr %5, align 4, !tbaa !36
  %42 = tail call reassoc nsz arcp contract afn float @llvm.fabs.f32(float %41)
  %43 = fadd reassoc nsz arcp contract afn float %42, %40
  %44 = load float, ptr %8, align 16, !tbaa !36
  %45 = fadd reassoc nsz arcp contract afn float %44, %42
  %46 = tail call reassoc nsz arcp contract afn float @llvm.maxnum.f32(float %45, float 0.000000e+00)
  %47 = tail call reassoc nsz arcp contract afn noundef float @llvm.minnum.f32(float %46, float %43)
  %48 = load float, ptr %9, align 16, !tbaa !36
  %49 = fadd reassoc nsz arcp contract afn float %48, %42
  %50 = tail call reassoc nsz arcp contract afn float @llvm.maxnum.f32(float %49, float 0.000000e+00)
  %51 = tail call reassoc nsz arcp contract afn noundef float @llvm.minnum.f32(float %50, float %43)
  %52 = fmul reassoc nsz arcp contract afn float %43, 5.000000e-01
  %53 = fmul reassoc nsz arcp contract afn float %43, 2.000000e+00
  %54 = fsub reassoc nsz arcp contract afn float 1.000000e+00, %39
  %55 = fmul reassoc nsz arcp contract afn float %47, %54
  %56 = fcmp reassoc nsz arcp contract afn ogt float %51, %52
  br i1 %56, label %57, label %63

57:                                               ; preds = %_blend_Lab_scale.exit59
  %58 = fcmp reassoc nsz arcp contract afn ult float %51, %43
  br i1 %58, label %59, label %70

59:                                               ; preds = %57
  %60 = fsub reassoc nsz arcp contract afn float %43, %51
  %61 = fmul reassoc nsz arcp contract afn float %60, %53
  %62 = fdiv reassoc nsz arcp contract afn float %47, %61
  br label %70

63:                                               ; preds = %_blend_Lab_scale.exit59
  %64 = fcmp reassoc nsz arcp contract afn ugt float %51, 0.000000e+00
  br i1 %64, label %65, label %70

65:                                               ; preds = %63
  %66 = fsub reassoc nsz arcp contract afn float %43, %47
  %67 = fmul reassoc nsz arcp contract afn float %51, %53
  %68 = fdiv reassoc nsz arcp contract afn float %66, %67
  %69 = fsub reassoc nsz arcp contract afn float %43, %68
  br label %70

70:                                               ; preds = %57, %65, %63, %59
  %71 = phi reassoc nsz arcp contract afn float [ %62, %59 ], [ %69, %65 ], [ 0.000000e+00, %63 ], [ %43, %57 ]
  %72 = fmul reassoc nsz arcp contract afn float %71, %39
  %73 = fadd reassoc nsz arcp contract afn float %72, %55
  %74 = tail call reassoc nsz arcp contract afn float @llvm.maxnum.f32(float %73, float 0.000000e+00)
  %75 = tail call reassoc nsz arcp contract afn noundef float @llvm.minnum.f32(float %74, float %43)
  %76 = fsub reassoc nsz arcp contract afn float %75, %42
  store float %76, ptr %9, align 16, !tbaa !36
  %77 = tail call reassoc nsz arcp contract afn float @llvm.maxnum.f32(float %44, float 0x3F847AE140000000)
  %78 = load float, ptr %10, align 4, !tbaa !36
  %79 = fmul reassoc nsz arcp contract afn float %78, %54
  %80 = load float, ptr %11, align 4, !tbaa !36
  %81 = fadd reassoc nsz arcp contract afn float %80, %78
  %82 = fmul reassoc nsz arcp contract afn float %76, %39
  %83 = fmul reassoc nsz arcp contract afn float %82, %81
  %84 = fdiv reassoc nsz arcp contract afn float %83, %77
  %85 = fadd reassoc nsz arcp contract afn float %84, %79
  %86 = load float, ptr %12, align 4, !tbaa !36
  %87 = load float, ptr %13, align 4, !tbaa !36
  %88 = tail call reassoc nsz arcp contract afn float @llvm.maxnum.f32(float %85, float %86)
  %89 = tail call reassoc nsz arcp contract afn noundef float @llvm.minnum.f32(float %88, float %87)
  store float %89, ptr %11, align 4, !tbaa !36
  %90 = load float, ptr %14, align 8, !tbaa !36
  %91 = fmul reassoc nsz arcp contract afn float %90, %54
  %92 = load float, ptr %15, align 8, !tbaa !36
  %93 = fadd reassoc nsz arcp contract afn float %92, %90
  %94 = fmul reassoc nsz arcp contract afn float %82, %93
  %95 = fdiv reassoc nsz arcp contract afn float %94, %77
  %96 = fadd reassoc nsz arcp contract afn float %95, %91
  %97 = load float, ptr %16, align 4, !tbaa !36
  %98 = load float, ptr %17, align 4, !tbaa !36
  %99 = tail call reassoc nsz arcp contract afn float @llvm.maxnum.f32(float %96, float %97)
  %100 = tail call reassoc nsz arcp contract afn noundef float @llvm.minnum.f32(float %99, float %98)
  store float %100, ptr %15, align 8, !tbaa !36
  %101 = getelementptr inbounds nuw float, ptr %2, i64 %.05462
  br label %102

102:                                              ; preds = %102, %70
  %.06.i60 = phi i64 [ 0, %70 ], [ %109, %102 ]
  %103 = getelementptr inbounds nuw float, ptr %9, i64 %.06.i60
  %104 = load float, ptr %103, align 4, !tbaa !36
  %105 = getelementptr inbounds nuw [4 x float], ptr @__const._blend_Lab_rescale.scale, i64 0, i64 %.06.i60
  %106 = load float, ptr %105, align 4, !tbaa !36
  %107 = fmul reassoc nsz arcp contract afn float %106, %104
  %108 = getelementptr inbounds nuw float, ptr %101, i64 %.06.i60
  store float %107, ptr %108, align 4, !tbaa !36
  %109 = add nuw nsw i64 %.06.i60, 1
  %exitcond.not.i61 = icmp eq i64 %109, 4
  br i1 %exitcond.not.i61, label %_blend_Lab_rescale.exit, label %102

_blend_Lab_rescale.exit:                          ; preds = %102
  %110 = or disjoint i64 %.05462, 3
  %111 = getelementptr inbounds nuw float, ptr %2, i64 %110
  store float %20, ptr %111, align 4, !tbaa !36
  call void @llvm.lifetime.end.p0(i64 16, ptr nonnull %9) #8
  call void @llvm.lifetime.end.p0(i64 16, ptr nonnull %8) #8
  %112 = add nuw i64 %.063, 1
  %113 = add i64 %.05462, 4
  %exitcond.not = icmp eq i64 %112, %4
  br i1 %exitcond.not, label %._crit_edge, label %18
}